; Function Attrs: mustprogress uwtable
define noundef zeroext i1 @Z3_global_param_get(ptr noundef %param_id, ptr noundef %param_value) local_unnamed_addr #3 personality ptr @__gxx_personality_v0 {
entry:
  %ref.tmp = alloca %"class.std::__cxx11::basic_string", align 8
  tail call void @_ZN6memory10initializeEm(i64 noundef 4294967295)
  %0 = atomicrmw xchg ptr @g_z3_log_enabled, i8 0 seq_cst, align 1
  %1 = and i8 %0, 1
  %tobool.i.not = icmp eq i8 %1, 0
  br i1 %tobool.i.not, label %if.end, label %if.then

if.then:                                          ; preds = %entry
  invoke void @_Z23log_Z3_global_param_getPKcPS0_(ptr noundef %param_id, ptr noundef %param_value)
          to label %if.end unwind label %lpad

lpad:                                             ; preds = %invoke.cont14, %if.then
  %2 = landingpad { ptr, i32 }
          cleanup
  br label %ehcleanup

if.end:                                           ; preds = %if.then, %entry
  store ptr null, ptr %param_value, align 8
  invoke void @_ZN7gparams9get_valueB5cxx11EPKc(ptr nonnull sret(%"class.std::__cxx11::basic_string") align 8 %ref.tmp, ptr noundef %param_id)
          to label %invoke.cont3 unwind label %lpad2

invoke.cont3:                                     ; preds = %if.end
  %call6 = invoke noundef nonnull align 8 dereferenceable(32) ptr @_ZN7gparams8g_bufferB5cxx11Ev()
          to label %invoke.cont5 unwind label %lpad4

invoke.cont5:                                     ; preds = %invoke.cont3
  %call7 = call noundef nonnull align 8 dereferenceable(32) ptr @_ZNSt7__cxx1112basic_stringIcSt11char_traitsIcESaIcEEaSEOS4_(ptr noundef nonnull align 8 dereferenceable(32) %call6, ptr noundef nonnull align 8 dereferenceable(32) %ref.tmp) #10
  call void @_ZNSt7__cxx1112basic_stringIcSt11char_traitsIcESaIcEED1Ev(ptr noundef nonnull align 8 dereferenceable(32) %ref.tmp) #10
  %call9 = invoke noundef nonnull align 8 dereferenceable(32) ptr @_ZN7gparams8g_bufferB5cxx11Ev()
          to label %invoke.cont8 unwind label %lpad2

invoke.cont8:                                     ; preds = %invoke.cont5
  %call10 = call noundef ptr @_ZNKSt7__cxx1112basic_stringIcSt11char_traitsIcESaIcEE5c_strEv(ptr noundef nonnull align 8 dereferenceable(32) %call9) #10
  store ptr %call10, ptr %param_value, align 8
  br label %cleanup

lpad2:                                            ; preds = %invoke.cont5, %if.end
  %3 = landingpad { ptr, i32 }
          cleanup
          catch ptr @_ZTI12z3_exception
  br label %catch.dispatch

lpad4:                                            ; preds = %invoke.cont3
  %4 = landingpad { ptr, i32 }
          cleanup
          catch ptr @_ZTI12z3_exception
  call void @_ZNSt7__cxx1112basic_stringIcSt11char_traitsIcESaIcEED1Ev(ptr noundef nonnull align 8 dereferenceable(32) %ref.tmp) #10
  br label %catch.dispatch

catch.dispatch:                                   ; preds = %lpad4, %lpad2
  %.pn = phi { ptr, i32 } [ %3, %lpad2 ], [ %4, %lpad4 ]
  %ehselector.slot.0 = extractvalue { ptr, i32 } %.pn, 1
  %5 = call i32 @llvm.eh.typeid.for(ptr nonnull @_ZTI12z3_exception) #10
  %matches = icmp eq i32 %ehselector.slot.0, %5
  br i1 %matches, label %catch, label %ehcleanup

catch:                                            ; preds = %catch.dispatch
  %exn.slot.0 = extractvalue { ptr, i32 } %.pn, 0
  %6 = call ptr @__cxa_begin_catch(ptr %exn.slot.0) #10
  %vtable = load ptr, ptr %6, align 8
  %vfn = getelementptr inbounds i8, ptr %vtable, i64 16
  %7 = load ptr, ptr %vfn, align 8
  %call13 = invoke noundef ptr %7(ptr noundef nonnull align 8 dereferenceable(8) %6)
          to label %invoke.cont12 unwind label %lpad11

invoke.cont12:                                    ; preds = %catch
  invoke void (ptr, ...) @_Z11warning_msgPKcz(ptr noundef nonnull @.str, ptr noundef %call13)
          to label %invoke.cont14 unwind label %lpad11

invoke.cont14:                                    ; preds = %invoke.cont12
  invoke void @__cxa_end_catch()
          to label %cleanup unwind label %lpad

lpad11:                                           ; preds = %invoke.cont12, %catch
  %8 = landingpad { ptr, i32 }
          cleanup
  invoke void @__cxa_end_catch()
          to label %ehcleanup unwind label %terminate.lpad

cleanup:                                          ; preds = %invoke.cont14, %invoke.cont8
  %retval.0 = phi i1 [ true, %invoke.cont8 ], [ false, %invoke.cont14 ]
  br i1 %tobool.i.not, label %_ZN10z3_log_ctxD2Ev.exit, label %if.then.i

if.then.i:                                        ; preds = %cleanup
  store atomic i8 1, ptr @g_z3_log_enabled seq_cst, align 1
  br label %_ZN10z3_log_ctxD2Ev.exit

_ZN10z3_log_ctxD2Ev.exit:                         ; preds = %cleanup, %if.then.i
  ret i1 %retval.0

ehcleanup:                                        ; preds = %lpad11, %catch.dispatch, %lpad
  %lpad.val19.merged = phi { ptr, i32 } [ %2, %lpad ], [ %8, %lpad11 ], [ %.pn, %catch.dispatch ]
  br i1 %tobool.i.not, label %_ZN10z3_log_ctxD2Ev.exit8, label %if.then.i7

if.then.i7:                                       ; preds = %ehcleanup
  store atomic i8 1, ptr @g_z3_log_enabled seq_cst, align 1
  br label %_ZN10z3_log_ctxD2Ev.exit8

_ZN10z3_log_ctxD2Ev.exit8:                        ; preds = %ehcleanup, %if.then.i7
  resume { ptr, i32 } %lpad.val19.merged

terminate.lpad:                                   ; preds = %lpad11
  %9 = landingpad { ptr, i32 }
          catch ptr null
  %10 = extractvalue { ptr, i32 } %9, 0
  call void @__clang_call_terminate(ptr %10) #11
  unreachable
}